target datalayout = "e-m:e-p270:32:32-p271:32:32-p272:64:64-i64:64-i128:128-f80:128-n8:16:32:64-S128"
target triple = "x86_64-pc-linux-gnu"

%struct.parResultsMaster = type { i32, i32, [10 x %struct.contractType] }
%struct.contractType = type { i32, i32, i32, i32, i32 }

; Function Attrs: mustprogress nounwind uwtable
define void @_Z9SideSeatsiiiiiP16parResultsMaster(i32 noundef %0, i32 noundef %1, i32 noundef %2, i32 noundef %3, i32 noundef %4, ptr noundef %5) #4 {
  %7 = alloca i32, align 4
  %8 = alloca i32, align 4
  %9 = alloca i32, align 4
  %10 = alloca i32, align 4
  %11 = alloca i32, align 4
  %12 = alloca ptr, align 8
  store i32 %0, ptr %7, align 4
  store i32 %1, ptr %8, align 4
  store i32 %2, ptr %9, align 4
  store i32 %3, ptr %10, align 4
  store i32 %4, ptr %11, align 4
  store ptr %5, ptr %12, align 8
  %13 = load i32, ptr %7, align 4
  %14 = load i32, ptr %8, align 4
  %15 = add nsw i32 %13, %14
  %16 = srem i32 %15, 2
  %17 = icmp ne i32 %16, 0
  br i1 %17, label %18, label %58

18:                                               ; preds = %6
  %19 = load i32, ptr %9, align 4
  %20 = load i32, ptr %10, align 4
  %21 = icmp eq i32 %19, %20
  br i1 %21, label %22, label %32

22:                                               ; preds = %18
  %23 = load ptr, ptr %12, align 8
  %24 = load i32, ptr %8, align 4
  %25 = sext i32 %24 to i64
  %26 = getelementptr inbounds %struct.parResultsMaster, ptr %23, i64 %25
  %27 = getelementptr inbounds nuw %struct.parResultsMaster, ptr %26, i32 0, i32 2
  %28 = load i32, ptr %11, align 4
  %29 = sext i32 %28 to i64
  %30 = getelementptr inbounds [10 x %struct.contractType], ptr %27, i64 0, i64 %29
  %31 = getelementptr inbounds nuw %struct.contractType, ptr %30, i32 0, i32 4
  store i32 4, ptr %31, align 4
  br label %57

32:                                               ; preds = %18
  %33 = load i32, ptr %9, align 4
  %34 = load i32, ptr %10, align 4
  %35 = icmp sgt i32 %33, %34
  br i1 %35, label %36, label %46

36:                                               ; preds = %32
  %37 = load ptr, ptr %12, align 8
  %38 = load i32, ptr %8, align 4
  %39 = sext i32 %38 to i64
  %40 = getelementptr inbounds %struct.parResultsMaster, ptr %37, i64 %39
  %41 = getelementptr inbounds nuw %struct.parResultsMaster, ptr %40, i32 0, i32 2
  %42 = load i32, ptr %11, align 4
  %43 = sext i32 %42 to i64
  %44 = getelementptr inbounds [10 x %struct.contractType], ptr %41, i64 0, i64 %43
  %45 = getelementptr inbounds nuw %struct.contractType, ptr %44, i32 0, i32 4
  store i32 0, ptr %45, align 4
  br label %56

46:                                               ; preds = %32
  %47 = load ptr, ptr %12, align 8
  %48 = load i32, ptr %8, align 4
  %49 = sext i32 %48 to i64
  %50 = getelementptr inbounds %struct.parResultsMaster, ptr %47, i64 %49
  %51 = getelementptr inbounds nuw %struct.parResultsMaster, ptr %50, i32 0, i32 2
  %52 = load i32, ptr %11, align 4
  %53 = sext i32 %52 to i64
  %54 = getelementptr inbounds [10 x %struct.contractType], ptr %51, i64 0, i64 %53
  %55 = getelementptr inbounds nuw %struct.contractType, ptr %54, i32 0, i32 4
  store i32 2, ptr %55, align 4
  br label %56

56:                                               ; preds = %46, %36
  br label %57

57:                                               ; preds = %56, %22
  br label %98

58:                                               ; preds = %6
  %59 = load i32, ptr %9, align 4
  %60 = load i32, ptr %10, align 4
  %61 = icmp eq i32 %59, %60
  br i1 %61, label %62, label %72

62:                                               ; preds = %58
  %63 = load ptr, ptr %12, align 8
  %64 = load i32, ptr %8, align 4
  %65 = sext i32 %64 to i64
  %66 = getelementptr inbounds %struct.parResultsMaster, ptr %63, i64 %65
  %67 = getelementptr inbounds nuw %struct.parResultsMaster, ptr %66, i32 0, i32 2
  %68 = load i32, ptr %11, align 4
  %69 = sext i32 %68 to i64
  %70 = getelementptr inbounds [10 x %struct.contractType], ptr %67, i64 0, i64 %69
  %71 = getelementptr inbounds nuw %struct.contractType, ptr %70, i32 0, i32 4
  store i32 5, ptr %71, align 4
  br label %97

72:                                               ; preds = %58
  %73 = load i32, ptr %9, align 4
  %74 = load i32, ptr %10, align 4
  %75 = icmp sgt i32 %73, %74
  br i1 %75, label %76, label %86

76:                                               ; preds = %72
  %77 = load ptr, ptr %12, align 8
  %78 = load i32, ptr %8, align 4
  %79 = sext i32 %78 to i64
  %80 = getelementptr inbounds %struct.parResultsMaster, ptr %77, i64 %79
  %81 = getelementptr inbounds nuw %struct.parResultsMaster, ptr %80, i32 0, i32 2
  %82 = load i32, ptr %11, align 4
  %83 = sext i32 %82 to i64
  %84 = getelementptr inbounds [10 x %struct.contractType], ptr %81, i64 0, i64 %83
  %85 = getelementptr inbounds nuw %struct.contractType, ptr %84, i32 0, i32 4
  store i32 1, ptr %85, align 4
  br label %96

86:                                               ; preds = %72
  %87 = load ptr, ptr %12, align 8
  %88 = load i32, ptr %8, align 4
  %89 = sext i32 %88 to i64
  %90 = getelementptr inbounds %struct.parResultsMaster, ptr %87, i64 %89
  %91 = getelementptr inbounds nuw %struct.parResultsMaster, ptr %90, i32 0, i32 2
  %92 = load i32, ptr %11, align 4
  %93 = sext i32 %92 to i64
  %94 = getelementptr inbounds [10 x %struct.contractType], ptr %91, i64 0, i64 %93
  %95 = getelementptr inbounds nuw %struct.contractType, ptr %94, i32 0, i32 4
  store i32 3, ptr %95, align 4
  br label %96

96:                                               ; preds = %86, %76
  br label %97

97:                                               ; preds = %96, %62
  br label %98

98:                                               ; preds = %97, %57
  ret void
}