; Function Attrs: mustprogress nofree norecurse nosync nounwind willreturn memory(argmem: write) uwtable
define void @_Z9SideSeatsiiiiiP16parResultsMaster(i32 noundef %0, i32 noundef %1, i32 noundef %2, i32 noundef %3, i32 noundef %4, ptr noundef writeonly captures(none) %5) local_unnamed_addr #9 {
  %7 = add nsw i32 %1, %0
  %8 = and i32 %7, 1
  %.not = icmp eq i32 %8, 0
  %9 = icmp eq i32 %2, %3
  br i1 %.not, label %22, label %10

10:                                               ; preds = %6
  br i1 %9, label %11, label %15

11:                                               ; preds = %10
  %12 = sext i32 %1 to i64
  %13 = sext i32 %4 to i64
  %14 = getelementptr inbounds %struct.parResultsMaster, ptr %5, i64 %12, i32 2, i64 %13, i32 4
  store i32 4, ptr %14, align 4
  br label %34

15:                                               ; preds = %10
  %16 = icmp sgt i32 %2, %3
  %17 = sext i32 %1 to i64
  %18 = sext i32 %4 to i64
  %19 = getelementptr inbounds %struct.parResultsMaster, ptr %5, i64 %17, i32 2, i64 %18, i32 4
  br i1 %16, label %20, label %21

20:                                               ; preds = %15
  store i32 0, ptr %19, align 4
  br label %34

21:                                               ; preds = %15
  store i32 2, ptr %19, align 4
  br label %34

22:                                               ; preds = %6
  br i1 %9, label %23, label %27

23:                                               ; preds = %22
  %24 = sext i32 %1 to i64
  %25 = sext i32 %4 to i64
  %26 = getelementptr inbounds %struct.parResultsMaster, ptr %5, i64 %24, i32 2, i64 %25, i32 4
  store i32 5, ptr %26, align 4
  br label %34

27:                                               ; preds = %22
  %28 = icmp sgt i32 %2, %3
  %29 = sext i32 %1 to i64
  %30 = sext i32 %4 to i64
  %31 = getelementptr inbounds %struct.parResultsMaster, ptr %5, i64 %29, i32 2, i64 %30, i32 4
  br i1 %28, label %32, label %33

32:                                               ; preds = %27
  store i32 1, ptr %31, align 4
  br label %34

33:                                               ; preds = %27
  store i32 3, ptr %31, align 4
  br label %34

34:                                               ; preds = %23, %33, %32, %11, %21, %20
  ret void
}